target datalayout = "e-m:e-p270:32:32-p271:32:32-p272:64:64-i64:64-i128:128-f80:128-n8:16:32:64-S128"
target triple = "x86_64-pc-linux-gnu"

; Function Attrs: mustprogress nounwind uwtable
define noundef i64 @_ZN12duckdb_miniz8mz_crc32EmPKhm(i64 noundef %0, ptr noundef %1, i64 noundef %2) #0 {
  %4 = alloca i64, align 8
  %5 = alloca ptr, align 8
  %6 = alloca i64, align 8
  %7 = alloca i32, align 4
  %8 = alloca ptr, align 8
  store i64 %0, ptr %4, align 8, !tbaa !3
  store ptr %1, ptr %5, align 8, !tbaa !7
  store i64 %2, ptr %6, align 8, !tbaa !3
  call void @llvm.lifetime.start.p0(i64 4, ptr %7) #11
  %9 = load i64, ptr %4, align 8, !tbaa !3
  %10 = trunc i64 %9 to i32
  %11 = xor i32 %10, -1
  store i32 %11, ptr %7, align 4, !tbaa !10
  call void @llvm.lifetime.start.p0(i64 8, ptr %8) #11
  %12 = load ptr, ptr %5, align 8, !tbaa !7
  store ptr %12, ptr %8, align 8, !tbaa !7
  br label %13

13:                                               ; preds = %16, %3
  %14 = load i64, ptr %6, align 8, !tbaa !3
  %15 = icmp uge i64 %14, 4
  br i1 %15, label %16, label %73

16:                                               ; preds = %13
  %17 = load i32, ptr %7, align 4, !tbaa !10
  %18 = lshr i32 %17, 8
  %19 = load i32, ptr %7, align 4, !tbaa !10
  %20 = load ptr, ptr %8, align 8, !tbaa !7
  %21 = getelementptr inbounds i8, ptr %20, i64 0
  %22 = load i8, ptr %21, align 1, !tbaa !12
  %23 = zext i8 %22 to i32
  %24 = xor i32 %19, %23
  %25 = and i32 %24, 255
  %26 = zext i32 %25 to i64
  %27 = getelementptr inbounds nuw [256 x i32], ptr @_ZZN12duckdb_miniz8mz_crc32EmPKhmE11s_crc_table, i64 0, i64 %26
  %28 = load i32, ptr %27, align 4, !tbaa !10
  %29 = xor i32 %18, %28
  store i32 %29, ptr %7, align 4, !tbaa !10
  %30 = load i32, ptr %7, align 4, !tbaa !10
  %31 = lshr i32 %30, 8
  %32 = load i32, ptr %7, align 4, !tbaa !10
  %33 = load ptr, ptr %8, align 8, !tbaa !7
  %34 = getelementptr inbounds i8, ptr %33, i64 1
  %35 = load i8, ptr %34, align 1, !tbaa !12
  %36 = zext i8 %35 to i32
  %37 = xor i32 %32, %36
  %38 = and i32 %37, 255
  %39 = zext i32 %38 to i64
  %40 = getelementptr inbounds nuw [256 x i32], ptr @_ZZN12duckdb_miniz8mz_crc32EmPKhmE11s_crc_table, i64 0, i64 %39
  %41 = load i32, ptr %40, align 4, !tbaa !10
  %42 = xor i32 %31, %41
  store i32 %42, ptr %7, align 4, !tbaa !10
  %43 = load i32, ptr %7, align 4, !tbaa !10
  %44 = lshr i32 %43, 8
  %45 = load i32, ptr %7, align 4, !tbaa !10
  %46 = load ptr, ptr %8, align 8, !tbaa !7
  %47 = getelementptr inbounds i8, ptr %46, i64 2
  %48 = load i8, ptr %47, align 1, !tbaa !12
  %49 = zext i8 %48 to i32
  %50 = xor i32 %45, %49
  %51 = and i32 %50, 255
  %52 = zext i32 %51 to i64
  %53 = getelementptr inbounds nuw [256 x i32], ptr @_ZZN12duckdb_miniz8mz_crc32EmPKhmE11s_crc_table, i64 0, i64 %52
  %54 = load i32, ptr %53, align 4, !tbaa !10
  %55 = xor i32 %44, %54
  store i32 %55, ptr %7, align 4, !tbaa !10
  %56 = load i32, ptr %7, align 4, !tbaa !10
  %57 = lshr i32 %56, 8
  %58 = load i32, ptr %7, align 4, !tbaa !10
  %59 = load ptr, ptr %8, align 8, !tbaa !7
  %60 = getelementptr inbounds i8, ptr %59, i64 3
  %61 = load i8, ptr %60, align 1, !tbaa !12
  %62 = zext i8 %61 to i32
  %63 = xor i32 %58, %62
  %64 = and i32 %63, 255
  %65 = zext i32 %64 to i64
  %66 = getelementptr inbounds nuw [256 x i32], ptr @_ZZN12duckdb_miniz8mz_crc32EmPKhmE11s_crc_table, i64 0, i64 %65
  %67 = load i32, ptr %66, align 4, !tbaa !10
  %68 = xor i32 %57, %67
  store i32 %68, ptr %7, align 4, !tbaa !10
  %69 = load ptr, ptr %8, align 8, !tbaa !7
  %70 = getelementptr inbounds i8, ptr %69, i64 4
  store ptr %70, ptr %8, align 8, !tbaa !7
  %71 = load i64, ptr %6, align 8, !tbaa !3
  %72 = sub i64 %71, 4
  store i64 %72, ptr %6, align 8, !tbaa !3
  br label %13, !llvm.loop !17

73:                                               ; preds = %13
  br label %74

74:                                               ; preds = %77, %73
  %75 = load i64, ptr %6, align 8, !tbaa !3
  %76 = icmp ne i64 %75, 0
  br i1 %76, label %77, label %95

77:                                               ; preds = %74
  %78 = load i32, ptr %7, align 4, !tbaa !10
  %79 = lshr i32 %78, 8
  %80 = load i32, ptr %7, align 4, !tbaa !10
  %81 = load ptr, ptr %8, align 8, !tbaa !7
  %82 = getelementptr inbounds i8, ptr %81, i64 0
  %83 = load i8, ptr %82, align 1, !tbaa !12
  %84 = zext i8 %83 to i32
  %85 = xor i32 %80, %84
  %86 = and i32 %85, 255
  %87 = zext i32 %86 to i64
  %88 = getelementptr inbounds nuw [256 x i32], ptr @_ZZN12duckdb_miniz8mz_crc32EmPKhmE11s_crc_table, i64 0, i64 %87
  %89 = load i32, ptr %88, align 4, !tbaa !10
  %90 = xor i32 %79, %89
  store i32 %90, ptr %7, align 4, !tbaa !10
  %91 = load ptr, ptr %8, align 8, !tbaa !7
  %92 = getelementptr inbounds nuw i8, ptr %91, i32 1
  store ptr %92, ptr %8, align 8, !tbaa !7
  %93 = load i64, ptr %6, align 8, !tbaa !3
  %94 = add i64 %93, -1
  store i64 %94, ptr %6, align 8, !tbaa !3
  br label %74, !llvm.loop !18

95:                                               ; preds = %74
  %96 = load i32, ptr %7, align 4, !tbaa !10
  %97 = xor i32 %96, -1
  %98 = zext i32 %97 to i64
  call void @llvm.lifetime.end.p0(i64 8, ptr %8) #11
  call void @llvm.lifetime.end.p0(i64 4, ptr %7) #11
  ret i64 %98
}

; Function Attrs: mustprogress nounwind uwtable
define internal noundef i64 @_ZN12duckdb_minizL29mz_zip_compute_crc32_callbackEPvmPKvm(ptr noundef %0, i64 noundef %1, ptr noundef %2, i64 noundef %3) #0 {
  %5 = alloca ptr, align 8
  %6 = alloca i64, align 8
  %7 = alloca ptr, align 8
  %8 = alloca i64, align 8
  %9 = alloca ptr, align 8
  store ptr %0, ptr %5, align 8, !tbaa !19
  store i64 %1, ptr %6, align 8, !tbaa !3
  store ptr %2, ptr %7, align 8, !tbaa !19
  store i64 %3, ptr %8, align 8, !tbaa !3
  call void @llvm.lifetime.start.p0(i64 8, ptr %9) #11
  %10 = load ptr, ptr %5, align 8, !tbaa !19
  store ptr %10, ptr %9, align 8, !tbaa !263
  %11 = load ptr, ptr %9, align 8, !tbaa !263
  %12 = load i32, ptr %11, align 4, !tbaa !10
  %13 = zext i32 %12 to i64
  %14 = load ptr, ptr %7, align 8, !tbaa !19
  %15 = load i64, ptr %8, align 8, !tbaa !3
  %16 = call noundef i64 @_ZN12duckdb_miniz8mz_crc32EmPKhm(i64 noundef %13, ptr noundef %14, i64 noundef %15)
  %17 = trunc i64 %16 to i32
  %18 = load ptr, ptr %9, align 8, !tbaa !263
  store i32 %17, ptr %18, align 4, !tbaa !10
  %19 = load i64, ptr %8, align 8, !tbaa !3
  call void @llvm.lifetime.end.p0(i64 8, ptr %9) #11
  ret i64 %19
}