; Function Attrs: mustprogress nofree norecurse nosync nounwind memory(argmem: readwrite) uwtable
define internal noundef i64 @_ZN12duckdb_minizL29mz_zip_compute_crc32_callbackEPvmPKvm(ptr noundef captures(none) %0, i64 %1, ptr noundef readonly captures(none) %2, i64 noundef returned %3) #20 {
  %5 = load i32, ptr %0, align 4, !tbaa !10
  %6 = xor i32 %5, -1
  %7 = icmp ugt i64 %3, 3
  br i1 %7, label %.lr.ph.i, label %.preheader.i

.preheader.i:                                     ; preds = %.lr.ph.i, %4
  %.025.lcssa.i = phi i64 [ %3, %4 ], [ %36, %.lr.ph.i ]
  %.023.lcssa.i = phi i32 [ %6, %4 ], [ %34, %.lr.ph.i ]
  %.0.lcssa.i = phi ptr [ %2, %4 ], [ %35, %.lr.ph.i ]
  %.not38.i = icmp eq i64 %.025.lcssa.i, 0
  br i1 %.not38.i, label %_ZN12duckdb_miniz8mz_crc32EmPKhm.exit, label %.lr.ph42.i

.lr.ph.i:                                         ; preds = %4, %.lr.ph.i
  %.035.i = phi ptr [ %35, %.lr.ph.i ], [ %2, %4 ]
  %.02334.i = phi i32 [ %34, %.lr.ph.i ], [ %6, %4 ]
  %.02533.i = phi i64 [ %36, %.lr.ph.i ], [ %3, %4 ]
  %8 = lshr i32 %.02334.i, 8
  %9 = load i8, ptr %.035.i, align 1, !tbaa !3
  %.023.tr.i = trunc i32 %.02334.i to i8
  %.narrow27.i = xor i8 %9, %.023.tr.i
  %10 = zext i8 %.narrow27.i to i64
  %11 = getelementptr inbounds nuw [256 x i32], ptr @_ZZN12duckdb_miniz8mz_crc32EmPKhmE11s_crc_table, i64 0, i64 %10
  %12 = load i32, ptr %11, align 4, !tbaa !10
  %13 = xor i32 %12, %8
  %14 = lshr i32 %13, 8
  %15 = getelementptr inbounds nuw i8, ptr %.035.i, i64 1
  %16 = load i8, ptr %15, align 1, !tbaa !3
  %.tr.i = trunc i32 %13 to i8
  %.narrow28.i = xor i8 %16, %.tr.i
  %17 = zext i8 %.narrow28.i to i64
  %18 = getelementptr inbounds nuw [256 x i32], ptr @_ZZN12duckdb_miniz8mz_crc32EmPKhmE11s_crc_table, i64 0, i64 %17
  %19 = load i32, ptr %18, align 4, !tbaa !10
  %20 = xor i32 %14, %19
  %21 = lshr i32 %20, 8
  %22 = getelementptr inbounds nuw i8, ptr %.035.i, i64 2
  %23 = load i8, ptr %22, align 1, !tbaa !3
  %.tr29.i = trunc i32 %20 to i8
  %.narrow30.i = xor i8 %23, %.tr29.i
  %24 = zext i8 %.narrow30.i to i64
  %25 = getelementptr inbounds nuw [256 x i32], ptr @_ZZN12duckdb_miniz8mz_crc32EmPKhmE11s_crc_table, i64 0, i64 %24
  %26 = load i32, ptr %25, align 4, !tbaa !10
  %27 = xor i32 %21, %26
  %28 = lshr i32 %27, 8
  %29 = getelementptr inbounds nuw i8, ptr %.035.i, i64 3
  %30 = load i8, ptr %29, align 1, !tbaa !3
  %.tr31.i = trunc i32 %27 to i8
  %.narrow32.i = xor i8 %30, %.tr31.i
  %31 = zext i8 %.narrow32.i to i64
  %32 = getelementptr inbounds nuw [256 x i32], ptr @_ZZN12duckdb_miniz8mz_crc32EmPKhmE11s_crc_table, i64 0, i64 %31
  %33 = load i32, ptr %32, align 4, !tbaa !10
  %34 = xor i32 %28, %33
  %35 = getelementptr inbounds nuw i8, ptr %.035.i, i64 4
  %36 = add i64 %.02533.i, -4
  %37 = icmp ugt i64 %36, 3
  br i1 %37, label %.lr.ph.i, label %.preheader.i, !llvm.loop !12

.lr.ph42.i:                                       ; preds = %.preheader.i, %.lr.ph42.i
  %.141.i = phi ptr [ %44, %.lr.ph42.i ], [ %.0.lcssa.i, %.preheader.i ]
  %.12440.i = phi i32 [ %43, %.lr.ph42.i ], [ %.023.lcssa.i, %.preheader.i ]
  %.12639.i = phi i64 [ %45, %.lr.ph42.i ], [ %.025.lcssa.i, %.preheader.i ]
  %38 = lshr i32 %.12440.i, 8
  %39 = load i8, ptr %.141.i, align 1, !tbaa !3
  %.124.tr.i = trunc i32 %.12440.i to i8
  %.narrow.i = xor i8 %39, %.124.tr.i
  %40 = zext i8 %.narrow.i to i64
  %41 = getelementptr inbounds nuw [256 x i32], ptr @_ZZN12duckdb_miniz8mz_crc32EmPKhmE11s_crc_table, i64 0, i64 %40
  %42 = load i32, ptr %41, align 4, !tbaa !10
  %43 = xor i32 %42, %38
  %44 = getelementptr inbounds nuw i8, ptr %.141.i, i64 1
  %45 = add nsw i64 %.12639.i, -1
  %.not.i = icmp eq i64 %45, 0
  br i1 %.not.i, label %_ZN12duckdb_miniz8mz_crc32EmPKhm.exit, label %.lr.ph42.i, !llvm.loop !13

_ZN12duckdb_miniz8mz_crc32EmPKhm.exit:            ; preds = %.lr.ph42.i, %.preheader.i
  %.124.lcssa.i = phi i32 [ %.023.lcssa.i, %.preheader.i ], [ %43, %.lr.ph42.i ]
  %46 = xor i32 %.124.lcssa.i, -1
  store i32 %46, ptr %0, align 4, !tbaa !10
  ret i64 %3
}